; Function Attrs: nounwind uwtable
define ptr @l_Lean_Elab_Tactic_SolveByElim_evalUnsafe____x40_Lean_Elab_Tactic_SolveByElim___hyg_578____boxed(ptr noundef %0, ptr noundef %1, ptr noundef %2, ptr noundef %3, ptr noundef %4, ptr noundef %5, ptr noundef %6, ptr noundef %7) local_unnamed_addr #0 {
  %9 = load ptr, ptr @l_Lean_Elab_Tactic_SolveByElim_evalUnsafe____x40_Lean_Elab_Tactic_SolveByElim___hyg_578____closed__2, align 8, !tbaa !4
  %10 = tail call ptr @l_Lean_Meta_evalExpr_x27___rarg(ptr noundef %9, ptr noundef %0, i8 noundef zeroext 0, ptr noundef %3, ptr noundef %4, ptr noundef %5, ptr noundef %6, ptr noundef %7) #4
  %11 = ptrtoint ptr %2 to i64
  %12 = and i64 %11, 1
  %.not = icmp eq i64 %12, 0
  br i1 %.not, label %13, label %lean_dec.exit11

13:                                               ; preds = %8
  %14 = load i32, ptr %2, align 4, !tbaa !8
  %15 = icmp sgt i32 %14, 1
  br i1 %15, label %16, label %18, !prof !11

16:                                               ; preds = %13
  %17 = add nsw i32 %14, -1
  store i32 %17, ptr %2, align 4, !tbaa !8
  br label %lean_dec.exit11

18:                                               ; preds = %13
  %.not.i = icmp eq i32 %14, 0
  br i1 %.not.i, label %lean_dec.exit11, label %19

19:                                               ; preds = %18
  tail call void @lean_dec_ref_cold(ptr noundef nonnull %2) #4
  br label %lean_dec.exit11

lean_dec.exit11:                                  ; preds = %19, %18, %16, %8
  %20 = ptrtoint ptr %1 to i64
  %21 = and i64 %20, 1
  %.not14 = icmp eq i64 %21, 0
  br i1 %.not14, label %22, label %lean_dec.exit

22:                                               ; preds = %lean_dec.exit11
  %23 = load i32, ptr %1, align 4, !tbaa !8
  %24 = icmp sgt i32 %23, 1
  br i1 %24, label %25, label %27, !prof !11

25:                                               ; preds = %22
  %26 = add nsw i32 %23, -1
  store i32 %26, ptr %1, align 4, !tbaa !8
  br label %lean_dec.exit

27:                                               ; preds = %22
  %.not.i12 = icmp eq i32 %23, 0
  br i1 %.not.i12, label %lean_dec.exit, label %28

28:                                               ; preds = %27
  tail call void @lean_dec_ref_cold(ptr noundef nonnull %1) #4
  br label %lean_dec.exit

lean_dec.exit:                                    ; preds = %28, %27, %25, %lean_dec.exit11
  ret ptr %10
}